target datalayout = "e-m:e-p270:32:32-p271:32:32-p272:64:64-i64:64-i128:128-f80:128-n8:16:32:64-S128"
target triple = "x86_64-pc-linux-gnu"

%struct.stbir__contributors = type { i32, i32 }
%struct.__mm_loadl_epi64_struct = type { i64 }
%struct.__loadu_ps = type { <4 x float> }
%struct.__storeu_ps = type { <4 x float> }

; Function Attrs: alwaysinline nounwind uwtable
define internal void @_mm_storeu_ps(ptr noundef %0, <4 x float> noundef %1) #13 {
  %3 = alloca ptr, align 8
  %4 = alloca <4 x float>, align 16
  store ptr %0, ptr %3, align 8
  store <4 x float> %1, ptr %4, align 16
  %5 = load <4 x float>, ptr %4, align 16
  %6 = load ptr, ptr %3, align 8
  %7 = getelementptr inbounds nuw %struct.__storeu_ps, ptr %6, i32 0, i32 0
  store <4 x float> %5, ptr %7, align 1
  ret void
}

; Function Attrs: alwaysinline nounwind uwtable
define internal <2 x i64> @_mm_loadl_epi64(ptr noundef %0) #13 {
  %2 = alloca ptr, align 8
  %3 = alloca <2 x i64>, align 16
  store ptr %0, ptr %2, align 8
  %4 = load ptr, ptr %2, align 8
  %5 = getelementptr inbounds nuw %struct.__mm_loadl_epi64_struct, ptr %4, i32 0, i32 0
  %6 = load i64, ptr %5, align 1
  %7 = insertelement <2 x i64> poison, i64 %6, i32 0
  %8 = insertelement <2 x i64> %7, i64 0, i32 1
  store <2 x i64> %8, ptr %3, align 16
  %9 = load <2 x i64>, ptr %3, align 16
  ret <2 x i64> %9
}

; Function Attrs: alwaysinline nounwind uwtable
define internal <4 x float> @_mm_add_ps(<4 x float> noundef %0, <4 x float> noundef %1) #13 {
  %3 = alloca <4 x float>, align 16
  %4 = alloca <4 x float>, align 16
  store <4 x float> %0, ptr %3, align 16
  store <4 x float> %1, ptr %4, align 16
  %5 = load <4 x float>, ptr %3, align 16
  %6 = load <4 x float>, ptr %4, align 16
  %7 = fadd <4 x float> %5, %6
  ret <4 x float> %7
}

; Function Attrs: alwaysinline nounwind uwtable
define internal <4 x float> @_mm_mul_ps(<4 x float> noundef %0, <4 x float> noundef %1) #13 {
  %3 = alloca <4 x float>, align 16
  %4 = alloca <4 x float>, align 16
  store <4 x float> %0, ptr %3, align 16
  store <4 x float> %1, ptr %4, align 16
  %5 = load <4 x float>, ptr %3, align 16
  %6 = load <4 x float>, ptr %4, align 16
  %7 = fmul <4 x float> %5, %6
  ret <4 x float> %7
}

; Function Attrs: alwaysinline nounwind uwtable
define internal <4 x float> @_mm_castsi128_ps(<2 x i64> noundef %0) #13 {
  %2 = alloca <2 x i64>, align 16
  store <2 x i64> %0, ptr %2, align 16
  %3 = load <2 x i64>, ptr %2, align 16
  %4 = bitcast <2 x i64> %3 to <4 x float>
  ret <4 x float> %4
}

; Function Attrs: alwaysinline nounwind uwtable
define internal <2 x i64> @_mm_castps_si128(<4 x float> noundef %0) #13 {
  %2 = alloca <4 x float>, align 16
  store <4 x float> %0, ptr %2, align 16
  %3 = load <4 x float>, ptr %2, align 16
  %4 = bitcast <4 x float> %3 to <2 x i64>
  ret <2 x i64> %4
}

; Function Attrs: alwaysinline nounwind uwtable
define internal <4 x float> @_mm_loadu_ps(ptr noundef %0) #13 {
  %2 = alloca ptr, align 8
  store ptr %0, ptr %2, align 8
  %3 = load ptr, ptr %2, align 8
  %4 = getelementptr inbounds nuw %struct.__loadu_ps, ptr %3, i32 0, i32 0
  %5 = load <4 x float>, ptr %4, align 1
  ret <4 x float> %5
}

; Function Attrs: nounwind uwtable
define internal void @stbir__horizontal_gather_4_channels_with_6_coeffs(ptr noundef %0, i32 noundef %1, ptr noundef %2, ptr noundef %3, ptr noundef %4, i32 noundef %5) #12 {
  %7 = alloca ptr, align 8
  %8 = alloca i32, align 4
  %9 = alloca ptr, align 8
  %10 = alloca ptr, align 8
  %11 = alloca ptr, align 8
  %12 = alloca i32, align 4
  %13 = alloca ptr, align 8
  %14 = alloca ptr, align 8
  %15 = alloca ptr, align 8
  %16 = alloca ptr, align 8
  %17 = alloca <4 x float>, align 16
  %18 = alloca <4 x float>, align 16
  %19 = alloca <4 x float>, align 16
  %20 = alloca <4 x float>, align 16
  store ptr %0, ptr %7, align 8
  store i32 %1, ptr %8, align 4
  store ptr %2, ptr %9, align 8
  store ptr %3, ptr %10, align 8
  store ptr %4, ptr %11, align 8
  store i32 %5, ptr %12, align 4
  call void @llvm.lifetime.start.p0(i64 8, ptr %13) #19
  %21 = load ptr, ptr %7, align 8
  %22 = load i32, ptr %8, align 4
  %23 = mul i32 %22, 4
  %24 = zext i32 %23 to i64
  %25 = getelementptr inbounds nuw float, ptr %21, i64 %24
  store ptr %25, ptr %13, align 8
  call void @llvm.lifetime.start.p0(i64 8, ptr %14) #19
  %26 = load ptr, ptr %7, align 8
  store ptr %26, ptr %14, align 8
  br label %27

27:                                               ; preds = %131, %6
  call void @llvm.lifetime.start.p0(i64 8, ptr %15) #19
  %28 = load ptr, ptr %9, align 8
  %29 = load ptr, ptr %10, align 8
  %30 = getelementptr inbounds nuw %struct.stbir__contributors, ptr %29, i32 0, i32 0
  %31 = load i32, ptr %30, align 4
  %32 = mul nsw i32 %31, 4
  %33 = sext i32 %32 to i64
  %34 = getelementptr inbounds float, ptr %28, i64 %33
  store ptr %34, ptr %15, align 8
  call void @llvm.lifetime.start.p0(i64 8, ptr %16) #19
  %35 = load ptr, ptr %11, align 8
  store ptr %35, ptr %16, align 8
  call void @llvm.lifetime.start.p0(i64 16, ptr %17) #19
  call void @llvm.lifetime.start.p0(i64 16, ptr %18) #19
  call void @llvm.lifetime.start.p0(i64 16, ptr %19) #19
  call void @llvm.lifetime.start.p0(i64 16, ptr %20) #19
  %36 = load ptr, ptr %15, align 8
  call void asm sideeffect "", "r,~{dirflag},~{fpsr},~{flags}"(ptr %36) #19, !srcloc !605
  %37 = load ptr, ptr %16, align 8
  %38 = call <4 x float> @_mm_loadu_ps(ptr noundef %37)
  store <4 x float> %38, ptr %20, align 16
  %39 = load <4 x float>, ptr %20, align 16
  %40 = call <2 x i64> @_mm_castps_si128(<4 x float> noundef %39)
  %41 = bitcast <2 x i64> %40 to <4 x i32>
  %42 = shufflevector <4 x i32> %41, <4 x i32> poison, <4 x i32> zeroinitializer
  %43 = bitcast <4 x i32> %42 to <2 x i64>
  %44 = call <4 x float> @_mm_castsi128_ps(<2 x i64> noundef %43)
  store <4 x float> %44, ptr %19, align 16
  %45 = load <4 x float>, ptr %19, align 16
  %46 = load ptr, ptr %15, align 8
  %47 = call <4 x float> @_mm_loadu_ps(ptr noundef %46)
  %48 = call <4 x float> @_mm_mul_ps(<4 x float> noundef %45, <4 x float> noundef %47)
  store <4 x float> %48, ptr %17, align 16
  %49 = load <4 x float>, ptr %20, align 16
  %50 = call <2 x i64> @_mm_castps_si128(<4 x float> noundef %49)
  %51 = bitcast <2 x i64> %50 to <4 x i32>
  %52 = shufflevector <4 x i32> %51, <4 x i32> poison, <4 x i32> <i32 1, i32 1, i32 1, i32 1>
  %53 = bitcast <4 x i32> %52 to <2 x i64>
  %54 = call <4 x float> @_mm_castsi128_ps(<2 x i64> noundef %53)
  store <4 x float> %54, ptr %19, align 16
  %55 = load <4 x float>, ptr %19, align 16
  %56 = load ptr, ptr %15, align 8
  %57 = getelementptr inbounds float, ptr %56, i64 4
  %58 = call <4 x float> @_mm_loadu_ps(ptr noundef %57)
  %59 = call <4 x float> @_mm_mul_ps(<4 x float> noundef %55, <4 x float> noundef %58)
  store <4 x float> %59, ptr %18, align 16
  %60 = load <4 x float>, ptr %20, align 16
  %61 = call <2 x i64> @_mm_castps_si128(<4 x float> noundef %60)
  %62 = bitcast <2 x i64> %61 to <4 x i32>
  %63 = shufflevector <4 x i32> %62, <4 x i32> poison, <4 x i32> <i32 2, i32 2, i32 2, i32 2>
  %64 = bitcast <4 x i32> %63 to <2 x i64>
  %65 = call <4 x float> @_mm_castsi128_ps(<2 x i64> noundef %64)
  store <4 x float> %65, ptr %19, align 16
  %66 = load <4 x float>, ptr %17, align 16
  %67 = load <4 x float>, ptr %19, align 16
  %68 = load ptr, ptr %15, align 8
  %69 = getelementptr inbounds float, ptr %68, i64 8
  %70 = call <4 x float> @_mm_loadu_ps(ptr noundef %69)
  %71 = call <4 x float> @_mm_mul_ps(<4 x float> noundef %67, <4 x float> noundef %70)
  %72 = call <4 x float> @_mm_add_ps(<4 x float> noundef %66, <4 x float> noundef %71)
  store <4 x float> %72, ptr %17, align 16
  %73 = load <4 x float>, ptr %20, align 16
  %74 = call <2 x i64> @_mm_castps_si128(<4 x float> noundef %73)
  %75 = bitcast <2 x i64> %74 to <4 x i32>
  %76 = shufflevector <4 x i32> %75, <4 x i32> poison, <4 x i32> <i32 3, i32 3, i32 3, i32 3>
  %77 = bitcast <4 x i32> %76 to <2 x i64>
  %78 = call <4 x float> @_mm_castsi128_ps(<2 x i64> noundef %77)
  store <4 x float> %78, ptr %19, align 16
  %79 = load <4 x float>, ptr %18, align 16
  %80 = load <4 x float>, ptr %19, align 16
  %81 = load ptr, ptr %15, align 8
  %82 = getelementptr inbounds float, ptr %81, i64 12
  %83 = call <4 x float> @_mm_loadu_ps(ptr noundef %82)
  %84 = call <4 x float> @_mm_mul_ps(<4 x float> noundef %80, <4 x float> noundef %83)
  %85 = call <4 x float> @_mm_add_ps(<4 x float> noundef %79, <4 x float> noundef %84)
  store <4 x float> %85, ptr %18, align 16
  %86 = load ptr, ptr %15, align 8
  call void asm sideeffect "", "r,~{dirflag},~{fpsr},~{flags}"(ptr %86) #19, !srcloc !606
  %87 = load ptr, ptr %16, align 8
  %88 = getelementptr inbounds float, ptr %87, i64 4
  %89 = call <2 x i64> @_mm_loadl_epi64(ptr noundef %88)
  %90 = call <4 x float> @_mm_castsi128_ps(<2 x i64> noundef %89)
  store <4 x float> %90, ptr %20, align 16
  %91 = load <4 x float>, ptr %20, align 16
  %92 = call <2 x i64> @_mm_castps_si128(<4 x float> noundef %91)
  %93 = bitcast <2 x i64> %92 to <4 x i32>
  %94 = shufflevector <4 x i32> %93, <4 x i32> poison, <4 x i32> zeroinitializer
  %95 = bitcast <4 x i32> %94 to <2 x i64>
  %96 = call <4 x float> @_mm_castsi128_ps(<2 x i64> noundef %95)
  store <4 x float> %96, ptr %19, align 16
  %97 = load <4 x float>, ptr %17, align 16
  %98 = load <4 x float>, ptr %19, align 16
  %99 = load ptr, ptr %15, align 8
  %100 = getelementptr inbounds float, ptr %99, i64 16
  %101 = call <4 x float> @_mm_loadu_ps(ptr noundef %100)
  %102 = call <4 x float> @_mm_mul_ps(<4 x float> noundef %98, <4 x float> noundef %101)
  %103 = call <4 x float> @_mm_add_ps(<4 x float> noundef %97, <4 x float> noundef %102)
  store <4 x float> %103, ptr %17, align 16
  %104 = load <4 x float>, ptr %20, align 16
  %105 = call <2 x i64> @_mm_castps_si128(<4 x float> noundef %104)
  %106 = bitcast <2 x i64> %105 to <4 x i32>
  %107 = shufflevector <4 x i32> %106, <4 x i32> poison, <4 x i32> <i32 1, i32 1, i32 1, i32 1>
  %108 = bitcast <4 x i32> %107 to <2 x i64>
  %109 = call <4 x float> @_mm_castsi128_ps(<2 x i64> noundef %108)
  store <4 x float> %109, ptr %19, align 16
  %110 = load <4 x float>, ptr %18, align 16
  %111 = load <4 x float>, ptr %19, align 16
  %112 = load ptr, ptr %15, align 8
  %113 = getelementptr inbounds float, ptr %112, i64 16
  %114 = getelementptr inbounds float, ptr %113, i64 4
  %115 = call <4 x float> @_mm_loadu_ps(ptr noundef %114)
  %116 = call <4 x float> @_mm_mul_ps(<4 x float> noundef %111, <4 x float> noundef %115)
  %117 = call <4 x float> @_mm_add_ps(<4 x float> noundef %110, <4 x float> noundef %116)
  store <4 x float> %117, ptr %18, align 16
  %118 = load <4 x float>, ptr %17, align 16
  %119 = load <4 x float>, ptr %18, align 16
  %120 = call <4 x float> @_mm_add_ps(<4 x float> noundef %118, <4 x float> noundef %119)
  store <4 x float> %120, ptr %17, align 16
  %121 = load ptr, ptr %14, align 8
  %122 = load <4 x float>, ptr %17, align 16
  call void @_mm_storeu_ps(ptr noundef %121, <4 x float> noundef %122)
  %123 = load i32, ptr %12, align 4
  %124 = load ptr, ptr %11, align 8
  %125 = sext i32 %123 to i64
  %126 = getelementptr inbounds float, ptr %124, i64 %125
  store ptr %126, ptr %11, align 8
  %127 = load ptr, ptr %10, align 8
  %128 = getelementptr inbounds nuw %struct.stbir__contributors, ptr %127, i32 1
  store ptr %128, ptr %10, align 8
  %129 = load ptr, ptr %14, align 8
  %130 = getelementptr inbounds float, ptr %129, i64 4
  store ptr %130, ptr %14, align 8
  call void @llvm.lifetime.end.p0(i64 16, ptr %20) #19
  call void @llvm.lifetime.end.p0(i64 16, ptr %19) #19
  call void @llvm.lifetime.end.p0(i64 16, ptr %18) #19
  call void @llvm.lifetime.end.p0(i64 16, ptr %17) #19
  call void @llvm.lifetime.end.p0(i64 8, ptr %16) #19
  call void @llvm.lifetime.end.p0(i64 8, ptr %15) #19
  br label %131

131:                                              ; preds = %27
  %132 = load ptr, ptr %14, align 8
  %133 = load ptr, ptr %13, align 8
  %134 = icmp ult ptr %132, %133
  br i1 %134, label %27, label %135, !llvm.loop !607

135:                                              ; preds = %131
  call void @llvm.lifetime.end.p0(i64 8, ptr %14) #19
  call void @llvm.lifetime.end.p0(i64 8, ptr %13) #19
  ret void
}