; Function Attrs: nounwind uwtable
define internal void @stbir__horizontal_gather_4_channels_with_6_coeffs(ptr noundef writeonly captures(address) %0, i32 noundef %1, ptr noundef %2, ptr noundef readonly captures(none) %3, ptr noundef readonly captures(none) %4, i32 noundef %5) #22 {
  %7 = shl i32 %1, 2
  %8 = zext i32 %7 to i64
  %9 = getelementptr inbounds nuw float, ptr %0, i64 %8
  %10 = sext i32 %5 to i64
  br label %11

11:                                               ; preds = %11, %6
  %.042 = phi ptr [ %0, %6 ], [ %51, %11 ]
  %.041 = phi ptr [ %4, %6 ], [ %49, %11 ]
  %.0 = phi ptr [ %3, %6 ], [ %50, %11 ]
  %12 = load i32, ptr %.0, align 4
  %13 = shl nsw i32 %12, 2
  %14 = sext i32 %13 to i64
  %15 = getelementptr inbounds float, ptr %2, i64 %14
  tail call void asm sideeffect "", "r,~{dirflag},~{fpsr},~{flags}"(ptr %15) #54, !srcloc !556
  %16 = load <4 x float>, ptr %.041, align 1
  %17 = shufflevector <4 x float> %16, <4 x float> poison, <4 x i32> zeroinitializer
  %18 = load <4 x float>, ptr %15, align 1
  %19 = fmul <4 x float> %18, %17
  %20 = shufflevector <4 x float> %16, <4 x float> poison, <4 x i32> <i32 1, i32 1, i32 1, i32 1>
  %21 = getelementptr inbounds nuw i8, ptr %15, i64 16
  %22 = load <4 x float>, ptr %21, align 1
  %23 = fmul <4 x float> %20, %22
  %24 = shufflevector <4 x float> %16, <4 x float> poison, <4 x i32> <i32 2, i32 2, i32 2, i32 2>
  %25 = getelementptr inbounds nuw i8, ptr %15, i64 32
  %26 = load <4 x float>, ptr %25, align 1
  %27 = fmul <4 x float> %24, %26
  %28 = fadd <4 x float> %19, %27
  %29 = shufflevector <4 x float> %16, <4 x float> poison, <4 x i32> <i32 3, i32 3, i32 3, i32 3>
  %30 = getelementptr inbounds nuw i8, ptr %15, i64 48
  %31 = load <4 x float>, ptr %30, align 1
  %32 = fmul <4 x float> %29, %31
  %33 = fadd <4 x float> %23, %32
  tail call void asm sideeffect "", "r,~{dirflag},~{fpsr},~{flags}"(ptr nonnull %15) #54, !srcloc !557
  %34 = getelementptr inbounds nuw i8, ptr %.041, i64 16
  %35 = load i64, ptr %34, align 1
  %36 = insertelement <2 x i64> <i64 poison, i64 0>, i64 %35, i64 0
  %37 = bitcast <2 x i64> %36 to <4 x float>
  %38 = shufflevector <4 x float> %37, <4 x float> poison, <4 x i32> zeroinitializer
  %39 = getelementptr inbounds nuw i8, ptr %15, i64 64
  %40 = load <4 x float>, ptr %39, align 1
  %41 = fmul <4 x float> %40, %38
  %42 = fadd <4 x float> %28, %41
  %43 = shufflevector <4 x float> %37, <4 x float> poison, <4 x i32> <i32 1, i32 1, i32 1, i32 1>
  %44 = getelementptr inbounds nuw i8, ptr %15, i64 80
  %45 = load <4 x float>, ptr %44, align 1
  %46 = fmul <4 x float> %45, %43
  %47 = fadd <4 x float> %33, %46
  %48 = fadd <4 x float> %42, %47
  store <4 x float> %48, ptr %.042, align 1
  %49 = getelementptr inbounds float, ptr %.041, i64 %10
  %50 = getelementptr inbounds nuw i8, ptr %.0, i64 8
  %51 = getelementptr inbounds nuw i8, ptr %.042, i64 16
  %52 = icmp ult ptr %51, %9
  br i1 %52, label %11, label %53, !llvm.loop !558

53:                                               ; preds = %11
  ret void
}